target datalayout = "e-m:e-p270:32:32-p271:32:32-p272:64:64-i64:64-i128:128-f80:128-n8:16:32:64-S128"
target triple = "x86_64-pc-linux-gnu"

@.str.8 = private unnamed_addr constant [29 x i8] c"../openssl/test/sanitytest.c\00", align 1
@.str.11 = private unnamed_addr constant [26 x i8] c"sizeof(enum smallchoices)\00", align 1
@.str.12 = private unnamed_addr constant [12 x i8] c"sizeof(int)\00", align 1
@.str.13 = private unnamed_addr constant [24 x i8] c"sizeof(enum medchoices)\00", align 1
@.str.14 = private unnamed_addr constant [26 x i8] c"sizeof(enum largechoices)\00", align 1

; Function Attrs: nounwind uwtable
define internal i32 @test_sanity_enum_size() #0 {
  %1 = alloca i32, align 4
  %2 = call i32 @test_size_t_eq(ptr noundef @.str.8, i32 noundef 45, ptr noundef @.str.11, ptr noundef @.str.12, i64 noundef 4, i64 noundef 4)
  %3 = icmp ne i32 %2, 0
  br i1 %3, label %4, label %10

4:                                                ; preds = %0
  %5 = call i32 @test_size_t_eq(ptr noundef @.str.8, i32 noundef 46, ptr noundef @.str.13, ptr noundef @.str.12, i64 noundef 4, i64 noundef 4)
  %6 = icmp ne i32 %5, 0
  br i1 %6, label %7, label %10

7:                                                ; preds = %4
  %8 = call i32 @test_size_t_eq(ptr noundef @.str.8, i32 noundef 47, ptr noundef @.str.14, ptr noundef @.str.12, i64 noundef 4, i64 noundef 4)
  %9 = icmp ne i32 %8, 0
  br i1 %9, label %11, label %10

10:                                               ; preds = %7, %4, %0
  store i32 0, ptr %1, align 4
  br label %12

11:                                               ; preds = %7
  store i32 1, ptr %1, align 4
  br label %12

12:                                               ; preds = %11, %10
  %13 = load i32, ptr %1, align 4
  ret i32 %13
}