; Function Attrs: nounwind uwtable
define internal range(i32 0, 2) i32 @test_sanity_enum_size() #0 {
  %1 = tail call i32 @test_size_t_eq(ptr noundef nonnull @.str.8, i32 noundef 45, ptr noundef nonnull @.str.11, ptr noundef nonnull @.str.12, i64 noundef 4, i64 noundef 4) #4
  %.not = icmp eq i32 %1, 0
  br i1 %.not, label %6, label %2

2:                                                ; preds = %0
  %3 = tail call i32 @test_size_t_eq(ptr noundef nonnull @.str.8, i32 noundef 46, ptr noundef nonnull @.str.13, ptr noundef nonnull @.str.12, i64 noundef 4, i64 noundef 4) #4
  %.not1 = icmp eq i32 %3, 0
  br i1 %.not1, label %6, label %4

4:                                                ; preds = %2
  %5 = tail call i32 @test_size_t_eq(ptr noundef nonnull @.str.8, i32 noundef 47, ptr noundef nonnull @.str.14, ptr noundef nonnull @.str.12, i64 noundef 4, i64 noundef 4) #4
  %.not2 = icmp ne i32 %5, 0
  %spec.select = zext i1 %.not2 to i32
  br label %6

6:                                                ; preds = %4, %0, %2
  %.0 = phi i32 [ 0, %2 ], [ 0, %0 ], [ %spec.select, %4 ]
  ret i32 %.0
}